; ModuleID = '15/2045.c'
source_filename = "15/2045.c"
target datalayout = "e-m:e-p270:32:32-p271:32:32-p272:64:64-i64:64-f80:128-n8:16:32:64-S128"
target triple = "x86_64-pc-linux-gnu"

@.str = private unnamed_addr constant [3 x i8] c"%d\00", align 1

; Function Attrs: noinline nounwind uwtable
define dso_local i32 @main() #0 {
  %1 = alloca i32, align 4
  %2 = alloca i32, align 4
  %3 = alloca i32, align 4
  %4 = alloca i32, align 4
  %5 = alloca i32, align 4
  %6 = alloca i32, align 4
  %7 = alloca i32, align 4
  %8 = alloca i32, align 4
  %9 = alloca i32, align 4
  %10 = alloca i32, align 4
  %11 = alloca i32, align 4
  %12 = alloca i32, align 4
  %13 = alloca i32, align 4
  %14 = alloca [100 x [100 x i32]], align 16
  store i32 0, i32* %1, align 4
  %15 = call i32 (i8*, ...) @__isoc99_scanf(i8* getelementptr inbounds ([3 x i8], [3 x i8]* @.str, i64 0, i64 0), i32* %2)
  store i32 0, i32* %4, align 4
  store i32 0, i32* %5, align 4
  store i32 0, i32* %6, align 4
  br label %16

16:                                               ; preds = %37, %0
  %17 = load i32, i32* %6, align 4
  %18 = load i32, i32* %2, align 4
  %19 = icmp slt i32 %17, %18
  br i1 %19, label %20, label %40

20:                                               ; preds = %16
  store i32 0, i32* %7, align 4
  br label %21

21:                                               ; preds = %33, %20
  %22 = load i32, i32* %7, align 4
  %23 = load i32, i32* %2, align 4
  %24 = icmp slt i32 %22, %23
  br i1 %24, label %25, label %36

25:                                               ; preds = %21
  %26 = load i32, i32* %6, align 4
  %27 = sext i32 %26 to i64
  %28 = getelementptr inbounds [100 x [100 x i32]], [100 x [100 x i32]]* %14, i64 0, i64 %27
  %29 = load i32, i32* %7, align 4
  %30 = sext i32 %29 to i64
  %31 = getelementptr inbounds [100 x i32], [100 x i32]* %28, i64 0, i64 %30
  %32 = call i32 (i8*, ...) @__isoc99_scanf(i8* getelementptr inbounds ([3 x i8], [3 x i8]* @.str, i64 0, i64 0), i32* %31)
  br label %33

33:                                               ; preds = %25
  %34 = load i32, i32* %7, align 4
  %35 = add nsw i32 %34, 1
  store i32 %35, i32* %7, align 4
  br label %21

36:                                               ; preds = %21
  br label %37

37:                                               ; preds = %36
  %38 = load i32, i32* %6, align 4
  %39 = add nsw i32 %38, 1
  store i32 %39, i32* %6, align 4
  br label %16

40:                                               ; preds = %16
  store i32 0, i32* %6, align 4
  br label %41

41:                                               ; preds = %97, %40
  %42 = load i32, i32* %6, align 4
  %43 = load i32, i32* %2, align 4
  %44 = icmp slt i32 %42, %43
  br i1 %44, label %45, label %48

45:                                               ; preds = %41
  %46 = load i32, i32* %4, align 4
  %47 = icmp eq i32 %46, 0
  br label %48

48:                                               ; preds = %45, %41
  %49 = phi i1 [ false, %41 ], [ %47, %45 ]
  br i1 %49, label %50, label %100

50:                                               ; preds = %48
  store i32 0, i32* %7, align 4
  br label %51

51:                                               ; preds = %93, %50
  %52 = load i32, i32* %7, align 4
  %53 = load i32, i32* %2, align 4
  %54 = icmp slt i32 %52, %53
  br i1 %54, label %55, label %58

55:                                               ; preds = %51
  %56 = load i32, i32* %4, align 4
  %57 = icmp eq i32 %56, 0
  br label %58

58:                                               ; preds = %55, %51
  %59 = phi i1 [ false, %51 ], [ %57, %55 ]
  br i1 %59, label %60, label %96

60:                                               ; preds = %58
  %61 = load i32, i32* %6, align 4
  %62 = sext i32 %61 to i64
  %63 = getelementptr inbounds [100 x [100 x i32]], [100 x [100 x i32]]* %14, i64 0, i64 %62
  %64 = load i32, i32* %7, align 4
  %65 = sext i32 %64 to i64
  %66 = getelementptr inbounds [100 x i32], [100 x i32]* %63, i64 0, i64 %65
  %67 = load i32, i32* %66, align 4
  %68 = icmp eq i32 %67, 0
  br i1 %68, label %69, label %92

69:                                               ; preds = %60
  %70 = load i32, i32* %6, align 4
  %71 = add nsw i32 %70, 1
  %72 = sext i32 %71 to i64
  %73 = getelementptr inbounds [100 x [100 x i32]], [100 x [100 x i32]]* %14, i64 0, i64 %72
  %74 = load i32, i32* %7, align 4
  %75 = sext i32 %74 to i64
  %76 = getelementptr inbounds [100 x i32], [100 x i32]* %73, i64 0, i64 %75
  %77 = load i32, i32* %76, align 4
  %78 = icmp eq i32 %77, 0
  br i1 %78, label %79, label %92

79:                                               ; preds = %69
  %80 = load i32, i32* %6, align 4
  %81 = sext i32 %80 to i64
  %82 = getelementptr inbounds [100 x [100 x i32]], [100 x [100 x i32]]* %14, i64 0, i64 %81
  %83 = load i32, i32* %7, align 4
  %84 = add nsw i32 %83, 1
  %85 = sext i32 %84 to i64
  %86 = getelementptr inbounds [100 x i32], [100 x i32]* %82, i64 0, i64 %85
  %87 = load i32, i32* %86, align 4
  %88 = icmp eq i32 %87, 0
  br i1 %88, label %89, label %92

89:                                               ; preds = %79
  %90 = load i32, i32* %6, align 4
  store i32 %90, i32* %8, align 4
  %91 = load i32, i32* %7, align 4
  store i32 %91, i32* %9, align 4
  store i32 1, i32* %4, align 4
  br label %92

92:                                               ; preds = %89, %79, %69, %60
  br label %93

93:                                               ; preds = %92
  %94 = load i32, i32* %7, align 4
  %95 = add nsw i32 %94, 1
  store i32 %95, i32* %7, align 4
  br label %51

96:                                               ; preds = %58
  br label %97

97:                                               ; preds = %96
  %98 = load i32, i32* %6, align 4
  %99 = add nsw i32 %98, 1
  store i32 %99, i32* %6, align 4
  br label %41

100:                                              ; preds = %48
  %101 = load i32, i32* %8, align 4
  store i32 %101, i32* %6, align 4
  br label %102

102:                                              ; preds = %159, %100
  %103 = load i32, i32* %6, align 4
  %104 = load i32, i32* %2, align 4
  %105 = icmp slt i32 %103, %104
  br i1 %105, label %106, label %109

106:                                              ; preds = %102
  %107 = load i32, i32* %5, align 4
  %108 = icmp eq i32 %107, 0
  br label %109

109:                                              ; preds = %106, %102
  %110 = phi i1 [ false, %102 ], [ %108, %106 ]
  br i1 %110, label %111, label %162

111:                                              ; preds = %109
  %112 = load i32, i32* %9, align 4
  store i32 %112, i32* %7, align 4
  br label %113

113:                                              ; preds = %155, %111
  %114 = load i32, i32* %7, align 4
  %115 = load i32, i32* %2, align 4
  %116 = icmp slt i32 %114, %115
  br i1 %116, label %117, label %120

117:                                              ; preds = %113
  %118 = load i32, i32* %5, align 4
  %119 = icmp eq i32 %118, 0
  br label %120

120:                                              ; preds = %117, %113
  %121 = phi i1 [ false, %113 ], [ %119, %117 ]
  br i1 %121, label %122, label %158

122:                                              ; preds = %120
  %123 = load i32, i32* %6, align 4
  %124 = sext i32 %123 to i64
  %125 = getelementptr inbounds [100 x [100 x i32]], [100 x [100 x i32]]* %14, i64 0, i64 %124
  %126 = load i32, i32* %7, align 4
  %127 = sext i32 %126 to i64
  %128 = getelementptr inbounds [100 x i32], [100 x i32]* %125, i64 0, i64 %127
  %129 = load i32, i32* %128, align 4
  %130 = icmp eq i32 %129, 0
  br i1 %130, label %131, label %154

131:                                              ; preds = %122
  %132 = load i32, i32* %6, align 4
  %133 = sub nsw i32 %132, 1
  %134 = sext i32 %133 to i64
  %135 = getelementptr inbounds [100 x [100 x i32]], [100 x [100 x i32]]* %14, i64 0, i64 %134
  %136 = load i32, i32* %7, align 4
  %137 = sext i32 %136 to i64
  %138 = getelementptr inbounds [100 x i32], [100 x i32]* %135, i64 0, i64 %137
  %139 = load i32, i32* %138, align 4
  %140 = icmp eq i32 %139, 0
  br i1 %140, label %141, label %154

141:                                              ; preds = %131
  %142 = load i32, i32* %6, align 4
  %143 = sext i32 %142 to i64
  %144 = getelementptr inbounds [100 x [100 x i32]], [100 x [100 x i32]]* %14, i64 0, i64 %143
  %145 = load i32, i32* %7, align 4
  %146 = sub nsw i32 %145, 1
  %147 = sext i32 %146 to i64
  %148 = getelementptr inbounds [100 x i32], [100 x i32]* %144, i64 0, i64 %147
  %149 = load i32, i32* %148, align 4
  %150 = icmp eq i32 %149, 0
  br i1 %150, label %151, label %154

151:                                              ; preds = %141
  %152 = load i32, i32* %6, align 4
  store i32 %152, i32* %11, align 4
  %153 = load i32, i32* %7, align 4
  store i32 %153, i32* %12, align 4
  store i32 1, i32* %5, align 4
  br label %154

154:                                              ; preds = %151, %141, %131, %122
  br label %155

155:                                              ; preds = %154
  %156 = load i32, i32* %7, align 4
  %157 = add nsw i32 %156, 1
  store i32 %157, i32* %7, align 4
  br label %113

158:                                              ; preds = %120
  br label %159

159:                                              ; preds = %158
  %160 = load i32, i32* %6, align 4
  %161 = add nsw i32 %160, 1
  store i32 %161, i32* %6, align 4
  br label %102

162:                                              ; preds = %109
  %163 = load i32, i32* %11, align 4
  %164 = load i32, i32* %8, align 4
  %165 = sub nsw i32 %163, %164
  %166 = sub nsw i32 %165, 1
  %167 = load i32, i32* %12, align 4
  %168 = load i32, i32* %9, align 4
  %169 = sub nsw i32 %167, %168
  %170 = sub nsw i32 %169, 1
  %171 = mul nsw i32 %166, %170
  store i32 %171, i32* %13, align 4
  %172 = load i32, i32* %13, align 4
  %173 = call i32 (i8*, ...) @printf(i8* getelementptr inbounds ([3 x i8], [3 x i8]* @.str, i64 0, i64 0), i32 %172)
  ret i32 0
}

declare dso_local i32 @__isoc99_scanf(i8*, ...) #1

declare dso_local i32 @printf(i8*, ...) #1


!llvm.module.flags = !{!0}
!llvm.ident = !{!1}

!0 = !{i32 1, !"wchar_size", i32 4}
!1 = !{!"clang version 10.0.0-4ubuntu1 "}
